; Function Attrs: mustprogress nounwind uwtable
define internal fastcc void @_ZN5eastl8hash_mapIZ8TestHashvE3KeyiZ8TestHashvE4HashNS_8equal_toIS1_EENS_9allocatorELb0EED2Ev(ptr nocapture noundef nonnull align 8 dereferenceable(45) %this) unnamed_addr #2 align 2 personality ptr @__gxx_personality_v0 {
entry:
  %mpBucketArray.i.i = getelementptr inbounds i8, ptr %this, i64 8
  %0 = load ptr, ptr %mpBucketArray.i.i, align 8
  %mnBucketCount.i.i = getelementptr inbounds i8, ptr %this, i64 16
  %1 = load i64, ptr %mnBucketCount.i.i, align 8
  %cmp3.not.i.i.i = icmp eq i64 %1, 0
  br i1 %cmp3.not.i.i.i, label %invoke.cont.thread.i, label %for.body.i.i.i

invoke.cont.thread.i:                             ; preds = %entry
  %mnElementCount.i3.i = getelementptr inbounds i8, ptr %this, i64 24
  store i64 0, ptr %mnElementCount.i3.i, align 8
  br label %_ZN5eastl9hashtableIZ8TestHashvE3KeyNS_4pairIKS1_iEENS_9allocatorENS_9use_firstIS4_EENS_8equal_toIS1_EEZ8TestHashvE4HashNS_17mod_range_hashingENS_19default_ranged_hashENS_19prime_rehash_policyELb0ELb1ELb1EED2Ev.exit

for.body.i.i.i:                                   ; preds = %entry, %while.end.i.i.i
  %i.04.i.i.i = phi i64 [ %inc.i.i.i, %while.end.i.i.i ], [ 0, %entry ]
  %arrayidx.i.i.i = getelementptr inbounds ptr, ptr %0, i64 %i.04.i.i.i
  %2 = load ptr, ptr %arrayidx.i.i.i, align 8
  %tobool.not1.i.i.i = icmp eq ptr %2, null
  br i1 %tobool.not1.i.i.i, label %while.end.i.i.i, label %_ZN5eastl9hashtableIZ8TestHashvE3KeyNS_4pairIKS1_iEENS_9allocatorENS_9use_firstIS4_EENS_8equal_toIS1_EEZ8TestHashvE4HashNS_17mod_range_hashingENS_19default_ranged_hashENS_19prime_rehash_policyELb0ELb1ELb1EE10DoFreeNodeEPNS_9hash_nodeIS4_Lb0EEE.exit.i.i.i

_ZN5eastl9hashtableIZ8TestHashvE3KeyNS_4pairIKS1_iEENS_9allocatorENS_9use_firstIS4_EENS_8equal_toIS1_EEZ8TestHashvE4HashNS_17mod_range_hashingENS_19default_ranged_hashENS_19prime_rehash_policyELb0ELb1ELb1EE10DoFreeNodeEPNS_9hash_nodeIS4_Lb0EEE.exit.i.i.i: ; preds = %for.body.i.i.i, %_ZN5eastl9hashtableIZ8TestHashvE3KeyNS_4pairIKS1_iEENS_9allocatorENS_9use_firstIS4_EENS_8equal_toIS1_EEZ8TestHashvE4HashNS_17mod_range_hashingENS_19default_ranged_hashENS_19prime_rehash_policyELb0ELb1ELb1EE10DoFreeNodeEPNS_9hash_nodeIS4_Lb0EEE.exit.i.i.i
  %pNode.02.i.i.i = phi ptr [ %3, %_ZN5eastl9hashtableIZ8TestHashvE3KeyNS_4pairIKS1_iEENS_9allocatorENS_9use_firstIS4_EENS_8equal_toIS1_EEZ8TestHashvE4HashNS_17mod_range_hashingENS_19default_ranged_hashENS_19prime_rehash_policyELb0ELb1ELb1EE10DoFreeNodeEPNS_9hash_nodeIS4_Lb0EEE.exit.i.i.i ], [ %2, %for.body.i.i.i ]
  %mpNext.i.i.i = getelementptr inbounds i8, ptr %pNode.02.i.i.i, i64 8
  %3 = load ptr, ptr %mpNext.i.i.i, align 8
  tail call void @_ZdaPv(ptr noundef nonnull %pNode.02.i.i.i) #19
  %tobool.not.i.i.i = icmp eq ptr %3, null
  br i1 %tobool.not.i.i.i, label %while.end.i.i.i, label %_ZN5eastl9hashtableIZ8TestHashvE3KeyNS_4pairIKS1_iEENS_9allocatorENS_9use_firstIS4_EENS_8equal_toIS1_EEZ8TestHashvE4HashNS_17mod_range_hashingENS_19default_ranged_hashENS_19prime_rehash_policyELb0ELb1ELb1EE10DoFreeNodeEPNS_9hash_nodeIS4_Lb0EEE.exit.i.i.i, !llvm.loop !1010

while.end.i.i.i:                                  ; preds = %_ZN5eastl9hashtableIZ8TestHashvE3KeyNS_4pairIKS1_iEENS_9allocatorENS_9use_firstIS4_EENS_8equal_toIS1_EEZ8TestHashvE4HashNS_17mod_range_hashingENS_19default_ranged_hashENS_19prime_rehash_policyELb0ELb1ELb1EE10DoFreeNodeEPNS_9hash_nodeIS4_Lb0EEE.exit.i.i.i, %for.body.i.i.i
  store ptr null, ptr %arrayidx.i.i.i, align 8
  %inc.i.i.i = add nuw i64 %i.04.i.i.i, 1
  %exitcond.not.i.i.i = icmp eq i64 %inc.i.i.i, %1
  br i1 %exitcond.not.i.i.i, label %invoke.cont.i, label %for.body.i.i.i, !llvm.loop !1011

invoke.cont.i:                                    ; preds = %while.end.i.i.i
  %.pre.i = load ptr, ptr %mpBucketArray.i.i, align 8
  %.pre1.i = load i64, ptr %mnBucketCount.i.i, align 8
  %4 = icmp ult i64 %.pre1.i, 2
  %mnElementCount.i.i = getelementptr inbounds i8, ptr %this, i64 24
  store i64 0, ptr %mnElementCount.i.i, align 8
  %isnull.i.i.i = icmp eq ptr %.pre.i, null
  %or.cond.i.i = or i1 %isnull.i.i.i, %4
  br i1 %or.cond.i.i, label %_ZN5eastl9hashtableIZ8TestHashvE3KeyNS_4pairIKS1_iEENS_9allocatorENS_9use_firstIS4_EENS_8equal_toIS1_EEZ8TestHashvE4HashNS_17mod_range_hashingENS_19default_ranged_hashENS_19prime_rehash_policyELb0ELb1ELb1EED2Ev.exit, label %delete.notnull.i.i.i

delete.notnull.i.i.i:                             ; preds = %invoke.cont.i
  tail call void @_ZdaPv(ptr noundef nonnull %.pre.i) #19
  br label %_ZN5eastl9hashtableIZ8TestHashvE3KeyNS_4pairIKS1_iEENS_9allocatorENS_9use_firstIS4_EENS_8equal_toIS1_EEZ8TestHashvE4HashNS_17mod_range_hashingENS_19default_ranged_hashENS_19prime_rehash_policyELb0ELb1ELb1EED2Ev.exit

_ZN5eastl9hashtableIZ8TestHashvE3KeyNS_4pairIKS1_iEENS_9allocatorENS_9use_firstIS4_EENS_8equal_toIS1_EEZ8TestHashvE4HashNS_17mod_range_hashingENS_19default_ranged_hashENS_19prime_rehash_policyELb0ELb1ELb1EED2Ev.exit: ; preds = %invoke.cont.thread.i, %invoke.cont.i, %delete.notnull.i.i.i
  ret void
}